; Function Attrs: nounwind uwtable
define internal ptr @_hashlib_HMAC_update(ptr noundef %0, ptr noundef %1, i64 noundef %2, ptr noundef %3) #0 {
  %5 = alloca [1 x ptr], align 8
  call void @llvm.lifetime.start.p0(i64 8, ptr nonnull %5) #9
  %6 = icmp eq ptr %3, null
  %7 = icmp eq i64 %2, 1
  %or.cond3 = and i1 %7, %6
  %8 = icmp ne ptr %1, null
  %or.cond5 = and i1 %8, %or.cond3
  br i1 %or.cond5, label %.thread, label %9

9:                                                ; preds = %4
  %10 = call ptr @_PyArg_UnpackKeywords(ptr noundef %1, i64 noundef %2, ptr noundef null, ptr noundef %3, ptr noundef nonnull @_hashlib_HMAC_update._parser, i32 noundef 1, i32 noundef 1, i32 noundef 0, i32 noundef 0, ptr noundef nonnull %5) #9
  %.not = icmp eq ptr %10, null
  br i1 %.not, label %14, label %.thread

.thread:                                          ; preds = %4, %9
  %11 = phi ptr [ %10, %9 ], [ %1, %4 ]
  %12 = load ptr, ptr %11, align 8, !tbaa !23
  %13 = call fastcc i32 @_hmac_update(ptr noundef %0, ptr noundef %12)
  %.not.i = icmp eq i32 %13, 0
  %._Py_NoneStruct.i = select i1 %.not.i, ptr null, ptr @_Py_NoneStruct
  br label %14

14:                                               ; preds = %9, %.thread
  %.0 = phi ptr [ %._Py_NoneStruct.i, %.thread ], [ null, %9 ]
  call void @llvm.lifetime.end.p0(i64 8, ptr nonnull %5) #9
  ret ptr %.0
}